; Function Attrs: nounwind uwtable
define hidden void @zim_DateTime_modify(ptr nocapture noundef readonly %0, ptr nocapture noundef writeonly %1) #0 {
  %3 = alloca ptr, align 8
  %4 = alloca i64, align 8
  %5 = alloca %struct.zend_error_handling, align 8
  %6 = getelementptr inbounds i8, ptr %0, i64 32
  %7 = getelementptr inbounds i8, ptr %0, i64 44
  %8 = load i32, ptr %7, align 4
  %9 = call i32 (i32, ptr, ...) @zend_parse_parameters(i32 noundef %8, ptr noundef nonnull @.str.44, ptr noundef nonnull %3, ptr noundef nonnull %4) #25
  %10 = icmp eq i32 %9, -1
  br i1 %10, label %11, label %14

11:                                               ; preds = %2
  %12 = load ptr, ptr getelementptr inbounds (%struct._zend_executor_globals, ptr @executor_globals, i64 0, i32 50), align 8
  %13 = icmp ne ptr %12, null
  call void @llvm.assume(i1 %13)
  br label %27

14:                                               ; preds = %2
  %15 = load ptr, ptr @date_ce_date_malformed_string_exception, align 8
  call void @zend_replace_error_handling(i32 noundef 1, ptr noundef %15, ptr noundef nonnull %5) #25
  %16 = load ptr, ptr %3, align 8
  %17 = load i64, ptr %4, align 8
  %.val = load ptr, ptr %6, align 8
  %18 = call fastcc zeroext i1 @php_date_modify(ptr %.val, ptr noundef %16, i64 noundef %17)
  call void @zend_restore_error_handling(ptr noundef nonnull %5) #25
  br i1 %18, label %22, label %19

19:                                               ; preds = %14
  %20 = load ptr, ptr getelementptr inbounds (%struct._zend_executor_globals, ptr @executor_globals, i64 0, i32 50), align 8
  %21 = icmp ne ptr %20, null
  call void @llvm.assume(i1 %21)
  br label %27

22:                                               ; preds = %14
  %23 = load ptr, ptr %6, align 8
  %24 = load i32, ptr %23, align 4
  %25 = add i32 %24, 1
  store i32 %25, ptr %23, align 4
  store ptr %23, ptr %1, align 8
  %26 = getelementptr inbounds i8, ptr %1, i64 8
  store i32 776, ptr %26, align 8
  br label %27

27:                                               ; preds = %22, %19, %11
  ret void
}